; Function Attrs: mustprogress uwtable
define void @_ZNK10open_spiel16nine_mens_morris19NineMensMorrisState14ActionToStringB5cxx11Eil(ptr dead_on_unwind noalias writable sret(%"class.std::__cxx11::basic_string") align 8 %0, ptr nocapture noundef nonnull readonly align 8 dereferenceable(216) %1, i32 noundef %2, i64 noundef %3) unnamed_addr #3 align 2 {
  %5 = getelementptr inbounds nuw i8, ptr %1, i64 8
  %6 = load ptr, ptr %5, align 8
  %7 = load ptr, ptr %6, align 8
  %8 = getelementptr inbounds i8, ptr %7, i64 200
  %9 = load ptr, ptr %8, align 8
  tail call void %9(ptr dead_on_unwind writable sret(%"class.std::__cxx11::basic_string") align 8 %0, ptr noundef nonnull align 8 dereferenceable(280) %6, i32 noundef %2, i64 noundef %3)
  ret void
}